target datalayout = "e-m:e-p270:32:32-p271:32:32-p272:64:64-i64:64-i128:128-f80:128-n8:16:32:64-S128"
target triple = "x86_64-pc-linux-gnu"

%"class.zmq::msg_t" = type { %union.anon.51 }
%union.anon.51 = type { %struct.anon }
%struct.anon = type { ptr, [34 x i8], i8, i8, i32, %"union.zmq::msg_t::group_t" }
%"union.zmq::msg_t::group_t" = type { %struct.anon.53 }
%struct.anon.53 = type { i8, ptr }

@stderr = external global ptr, align 8
@.str = private unnamed_addr constant [12 x i8] c"%s (%s:%d)\0A\00", align 1
@.str.1 = private unnamed_addr constant [104 x i8] c"generated/home/dtcxzyw/WorkSpace/Projects/compilers/llvm-opt-benchmark/bench/libzmq/libzmq/src/dish.cpp\00", align 1
@.str.4 = private unnamed_addr constant [6 x i8] c"\04JOIN\00", align 1
@.str.5 = private unnamed_addr constant [7 x i8] c"\05LEAVE\00", align 1

; Function Attrs: mustprogress uwtable
define noundef i32 @_ZN3zmq14dish_session_t8pull_msgEPNS_5msg_tE(ptr noundef nonnull align 8 dereferenceable(1696) %0, ptr noundef %1) unnamed_addr #0 align 2 {
  %3 = alloca i32, align 4
  %4 = alloca ptr, align 8
  %5 = alloca ptr, align 8
  %6 = alloca i32, align 4
  %7 = alloca i32, align 4
  %8 = alloca i32, align 4
  %9 = alloca %"class.zmq::msg_t", align 8
  %10 = alloca i32, align 4
  %11 = alloca ptr, align 8
  %12 = alloca ptr, align 8
  %13 = alloca ptr, align 8
  %14 = alloca ptr, align 8
  store ptr %0, ptr %4, align 8, !tbaa !125
  store ptr %1, ptr %5, align 8, !tbaa !119
  %15 = load ptr, ptr %4, align 8
  call void @llvm.lifetime.start.p0(i64 4, ptr %6) #18
  %16 = load ptr, ptr %5, align 8, !tbaa !119
  %17 = call noundef i32 @_ZN3zmq14session_base_t8pull_msgEPNS_5msg_tE(ptr noundef nonnull align 8 dereferenceable(1624) %15, ptr noundef %16)
  store i32 %17, ptr %6, align 4, !tbaa !10
  %18 = load i32, ptr %6, align 4, !tbaa !10
  %19 = icmp ne i32 %18, 0
  br i1 %19, label %20, label %22

20:                                               ; preds = %2
  %21 = load i32, ptr %6, align 4, !tbaa !10
  store i32 %21, ptr %3, align 4
  store i32 1, ptr %7, align 4
  br label %122

22:                                               ; preds = %2
  %23 = load ptr, ptr %5, align 8, !tbaa !119
  %24 = call noundef zeroext i1 @_ZNK3zmq5msg_t7is_joinEv(ptr noundef nonnull align 8 dereferenceable(64) %23)
  br i1 %24, label %30, label %25

25:                                               ; preds = %22
  %26 = load ptr, ptr %5, align 8, !tbaa !119
  %27 = call noundef zeroext i1 @_ZNK3zmq5msg_t8is_leaveEv(ptr noundef nonnull align 8 dereferenceable(64) %26)
  br i1 %27, label %30, label %28

28:                                               ; preds = %25
  %29 = load i32, ptr %6, align 4, !tbaa !10
  store i32 %29, ptr %3, align 4
  store i32 1, ptr %7, align 4
  br label %122

30:                                               ; preds = %25, %22
  call void @llvm.lifetime.start.p0(i64 4, ptr %8) #18
  %31 = load ptr, ptr %5, align 8, !tbaa !119
  %32 = call noundef ptr @_ZNK3zmq5msg_t5groupEv(ptr noundef nonnull align 8 dereferenceable(64) %31)
  %33 = call i64 @strlen(ptr noundef %32) #23
  %34 = trunc i64 %33 to i32
  store i32 %34, ptr %8, align 4, !tbaa !10
  call void @llvm.lifetime.start.p0(i64 64, ptr %9) #18
  call void @llvm.lifetime.start.p0(i64 4, ptr %10) #18
  %35 = load ptr, ptr %5, align 8, !tbaa !119
  %36 = call noundef zeroext i1 @_ZNK3zmq5msg_t7is_joinEv(ptr noundef nonnull align 8 dereferenceable(64) %35)
  br i1 %36, label %37, label %63

37:                                               ; preds = %30
  %38 = load i32, ptr %8, align 4, !tbaa !10
  %39 = add nsw i32 %38, 5
  %40 = sext i32 %39 to i64
  %41 = call noundef i32 @_ZN3zmq5msg_t9init_sizeEm(ptr noundef nonnull align 8 dereferenceable(64) %9, i64 noundef %40)
  store i32 %41, ptr %6, align 4, !tbaa !10
  br label %42

42:                                               ; preds = %37
  %43 = load i32, ptr %6, align 4, !tbaa !10
  %44 = icmp eq i32 %43, 0
  %45 = xor i1 %44, true
  %46 = zext i1 %45 to i64
  %47 = call i64 @llvm.expect.i64(i64 %46, i64 0)
  %48 = icmp ne i64 %47, 0
  br i1 %48, label %49, label %59

49:                                               ; preds = %42
  call void @llvm.lifetime.start.p0(i64 8, ptr %11) #18
  %50 = call ptr @__errno_location() #19
  %51 = load i32, ptr %50, align 4, !tbaa !10
  %52 = call ptr @strerror(i32 noundef %51) #18
  store ptr %52, ptr %11, align 8, !tbaa !97
  %53 = load ptr, ptr @stderr, align 8, !tbaa !98
  %54 = load ptr, ptr %11, align 8, !tbaa !97
  %55 = call i32 (ptr, ptr, ...) @fprintf(ptr noundef %53, ptr noundef @.str, ptr noundef %54, ptr noundef @.str.1, i32 noundef 293) #18
  %56 = load ptr, ptr @stderr, align 8, !tbaa !98
  %57 = call i32 @fflush(ptr noundef %56)
  %58 = load ptr, ptr %11, align 8, !tbaa !97
  call void @_ZN3zmq9zmq_abortEPKc(ptr noundef %58)
  call void @llvm.lifetime.end.p0(i64 8, ptr %11) #18
  br label %59

59:                                               ; preds = %49, %42
  br label %60

60:                                               ; preds = %59
  br label %61

61:                                               ; preds = %60
  store i32 5, ptr %10, align 4, !tbaa !10
  %62 = call noundef ptr @_ZN3zmq5msg_t4dataEv(ptr noundef nonnull align 8 dereferenceable(64) %9)
  call void @llvm.memcpy.p0.p0.i64(ptr align 1 %62, ptr align 1 @.str.4, i64 5, i1 false)
  br label %89

63:                                               ; preds = %30
  %64 = load i32, ptr %8, align 4, !tbaa !10
  %65 = add nsw i32 %64, 6
  %66 = sext i32 %65 to i64
  %67 = call noundef i32 @_ZN3zmq5msg_t9init_sizeEm(ptr noundef nonnull align 8 dereferenceable(64) %9, i64 noundef %66)
  store i32 %67, ptr %6, align 4, !tbaa !10
  br label %68

68:                                               ; preds = %63
  %69 = load i32, ptr %6, align 4, !tbaa !10
  %70 = icmp eq i32 %69, 0
  %71 = xor i1 %70, true
  %72 = zext i1 %71 to i64
  %73 = call i64 @llvm.expect.i64(i64 %72, i64 0)
  %74 = icmp ne i64 %73, 0
  br i1 %74, label %75, label %85

75:                                               ; preds = %68
  call void @llvm.lifetime.start.p0(i64 8, ptr %12) #18
  %76 = call ptr @__errno_location() #19
  %77 = load i32, ptr %76, align 4, !tbaa !10
  %78 = call ptr @strerror(i32 noundef %77) #18
  store ptr %78, ptr %12, align 8, !tbaa !97
  %79 = load ptr, ptr @stderr, align 8, !tbaa !98
  %80 = load ptr, ptr %12, align 8, !tbaa !97
  %81 = call i32 (ptr, ptr, ...) @fprintf(ptr noundef %79, ptr noundef @.str, ptr noundef %80, ptr noundef @.str.1, i32 noundef 298) #18
  %82 = load ptr, ptr @stderr, align 8, !tbaa !98
  %83 = call i32 @fflush(ptr noundef %82)
  %84 = load ptr, ptr %12, align 8, !tbaa !97
  call void @_ZN3zmq9zmq_abortEPKc(ptr noundef %84)
  call void @llvm.lifetime.end.p0(i64 8, ptr %12) #18
  br label %85

85:                                               ; preds = %75, %68
  br label %86

86:                                               ; preds = %85
  br label %87

87:                                               ; preds = %86
  store i32 6, ptr %10, align 4, !tbaa !10
  %88 = call noundef ptr @_ZN3zmq5msg_t4dataEv(ptr noundef nonnull align 8 dereferenceable(64) %9)
  call void @llvm.memcpy.p0.p0.i64(ptr align 1 %88, ptr align 1 @.str.5, i64 6, i1 false)
  br label %89

89:                                               ; preds = %87, %61
  call void @_ZN3zmq5msg_t9set_flagsEh(ptr noundef nonnull align 8 dereferenceable(64) %9, i8 noundef zeroext 2)
  call void @llvm.lifetime.start.p0(i64 8, ptr %13) #18
  %90 = call noundef ptr @_ZN3zmq5msg_t4dataEv(ptr noundef nonnull align 8 dereferenceable(64) %9)
  store ptr %90, ptr %13, align 8, !tbaa !97
  %91 = load ptr, ptr %13, align 8, !tbaa !97
  %92 = load i32, ptr %10, align 4, !tbaa !10
  %93 = sext i32 %92 to i64
  %94 = getelementptr inbounds i8, ptr %91, i64 %93
  %95 = load ptr, ptr %5, align 8, !tbaa !119
  %96 = call noundef ptr @_ZNK3zmq5msg_t5groupEv(ptr noundef nonnull align 8 dereferenceable(64) %95)
  %97 = load i32, ptr %8, align 4, !tbaa !10
  %98 = sext i32 %97 to i64
  call void @llvm.memcpy.p0.p0.i64(ptr align 1 %94, ptr align 1 %96, i64 %98, i1 false)
  %99 = load ptr, ptr %5, align 8, !tbaa !119
  %100 = call noundef i32 @_ZN3zmq5msg_t5closeEv(ptr noundef nonnull align 8 dereferenceable(64) %99)
  store i32 %100, ptr %6, align 4, !tbaa !10
  br label %101

101:                                              ; preds = %89
  %102 = load i32, ptr %6, align 4, !tbaa !10
  %103 = icmp eq i32 %102, 0
  %104 = xor i1 %103, true
  %105 = zext i1 %104 to i64
  %106 = call i64 @llvm.expect.i64(i64 %105, i64 0)
  %107 = icmp ne i64 %106, 0
  br i1 %107, label %108, label %118

108:                                              ; preds = %101
  call void @llvm.lifetime.start.p0(i64 8, ptr %14) #18
  %109 = call ptr @__errno_location() #19
  %110 = load i32, ptr %109, align 4, !tbaa !10
  %111 = call ptr @strerror(i32 noundef %110) #18
  store ptr %111, ptr %14, align 8, !tbaa !97
  %112 = load ptr, ptr @stderr, align 8, !tbaa !98
  %113 = load ptr, ptr %14, align 8, !tbaa !97
  %114 = call i32 (ptr, ptr, ...) @fprintf(ptr noundef %112, ptr noundef @.str, ptr noundef %113, ptr noundef @.str.1, i32 noundef 311) #18
  %115 = load ptr, ptr @stderr, align 8, !tbaa !98
  %116 = call i32 @fflush(ptr noundef %115)
  %117 = load ptr, ptr %14, align 8, !tbaa !97
  call void @_ZN3zmq9zmq_abortEPKc(ptr noundef %117)
  call void @llvm.lifetime.end.p0(i64 8, ptr %14) #18
  br label %118

118:                                              ; preds = %108, %101
  br label %119

119:                                              ; preds = %118
  br label %120

120:                                              ; preds = %119
  %121 = load ptr, ptr %5, align 8, !tbaa !119
  call void @llvm.memcpy.p0.p0.i64(ptr align 8 %121, ptr align 8 %9, i64 64, i1 false), !tbaa.struct !146
  store i32 0, ptr %3, align 4
  store i32 1, ptr %7, align 4
  call void @llvm.lifetime.end.p0(i64 8, ptr %13) #18
  call void @llvm.lifetime.end.p0(i64 4, ptr %10) #18
  call void @llvm.lifetime.end.p0(i64 64, ptr %9) #18
  call void @llvm.lifetime.end.p0(i64 4, ptr %8) #18
  br label %122

122:                                              ; preds = %120, %28, %20
  call void @llvm.lifetime.end.p0(i64 4, ptr %6) #18
  %123 = load i32, ptr %3, align 4
  ret i32 %123
}