; Function Attrs: mustprogress uwtable
define noundef i32 @_ZN3zmq14dish_session_t8pull_msgEPNS_5msg_tE(ptr noundef nonnull align 8 dereferenceable(1696) %0, ptr noundef %1) unnamed_addr #0 align 2 {
  %3 = alloca %"class.zmq::msg_t", align 8
  %4 = tail call noundef i32 @_ZN3zmq14session_base_t8pull_msgEPNS_5msg_tE(ptr noundef nonnull align 8 dereferenceable(1624) %0, ptr noundef %1)
  %.not = icmp eq i32 %4, 0
  br i1 %.not, label %5, label %55

5:                                                ; preds = %2
  %6 = tail call noundef zeroext i1 @_ZNK3zmq5msg_t7is_joinEv(ptr noundef nonnull align 8 dereferenceable(64) %1)
  br i1 %6, label %9, label %7

7:                                                ; preds = %5
  %8 = tail call noundef zeroext i1 @_ZNK3zmq5msg_t8is_leaveEv(ptr noundef nonnull align 8 dereferenceable(64) %1)
  br i1 %8, label %9, label %55

9:                                                ; preds = %7, %5
  %10 = tail call noundef ptr @_ZNK3zmq5msg_t5groupEv(ptr noundef nonnull align 8 dereferenceable(64) %1)
  %11 = tail call i64 @strlen(ptr noundef nonnull dereferenceable(1) %10) #26
  call void @llvm.lifetime.start.p0(i64 64, ptr nonnull %3) #22
  %12 = tail call noundef zeroext i1 @_ZNK3zmq5msg_t7is_joinEv(ptr noundef nonnull align 8 dereferenceable(64) %1)
  %13 = shl i64 %11, 32
  br i1 %12, label %14, label %27

14:                                               ; preds = %9
  %sext29 = add i64 %13, 21474836480
  %15 = ashr exact i64 %sext29, 32
  %16 = call noundef i32 @_ZN3zmq5msg_t9init_sizeEm(ptr noundef nonnull align 8 dereferenceable(64) %3, i64 noundef %15)
  %.not30 = icmp eq i32 %16, 0
  br i1 %.not30, label %25, label %17, !prof !98

17:                                               ; preds = %14
  %18 = tail call ptr @__errno_location() #21
  %19 = load i32, ptr %18, align 4, !tbaa !99
  %20 = call ptr @strerror(i32 noundef %19) #22
  %21 = load ptr, ptr @stderr, align 8, !tbaa !100
  %22 = call i32 (ptr, ptr, ...) @fprintf(ptr noundef %21, ptr noundef nonnull @.str, ptr noundef %20, ptr noundef nonnull @.str.1, i32 noundef 293) #23
  %23 = load ptr, ptr @stderr, align 8, !tbaa !100
  %24 = call i32 @fflush(ptr noundef %23)
  call void @_ZN3zmq9zmq_abortEPKc(ptr noundef %20)
  br label %25

25:                                               ; preds = %17, %14
  %26 = call noundef ptr @_ZN3zmq5msg_t4dataEv(ptr noundef nonnull align 8 dereferenceable(64) %3)
  call void @llvm.memcpy.p0.p0.i64(ptr noundef nonnull align 1 dereferenceable(5) %26, ptr noundef nonnull align 1 dereferenceable(5) @.str.4, i64 5, i1 false)
  br label %40

27:                                               ; preds = %9
  %sext = add i64 %13, 25769803776
  %28 = ashr exact i64 %sext, 32
  %29 = call noundef i32 @_ZN3zmq5msg_t9init_sizeEm(ptr noundef nonnull align 8 dereferenceable(64) %3, i64 noundef %28)
  %.not28 = icmp eq i32 %29, 0
  br i1 %.not28, label %38, label %30, !prof !98

30:                                               ; preds = %27
  %31 = tail call ptr @__errno_location() #21
  %32 = load i32, ptr %31, align 4, !tbaa !99
  %33 = call ptr @strerror(i32 noundef %32) #22
  %34 = load ptr, ptr @stderr, align 8, !tbaa !100
  %35 = call i32 (ptr, ptr, ...) @fprintf(ptr noundef %34, ptr noundef nonnull @.str, ptr noundef %33, ptr noundef nonnull @.str.1, i32 noundef 298) #23
  %36 = load ptr, ptr @stderr, align 8, !tbaa !100
  %37 = call i32 @fflush(ptr noundef %36)
  call void @_ZN3zmq9zmq_abortEPKc(ptr noundef %33)
  br label %38

38:                                               ; preds = %30, %27
  %39 = call noundef ptr @_ZN3zmq5msg_t4dataEv(ptr noundef nonnull align 8 dereferenceable(64) %3)
  call void @llvm.memcpy.p0.p0.i64(ptr noundef nonnull align 1 dereferenceable(6) %39, ptr noundef nonnull align 1 dereferenceable(6) @.str.5, i64 6, i1 false)
  br label %40

40:                                               ; preds = %38, %25
  %.026 = phi i64 [ 6, %38 ], [ 5, %25 ]
  call void @_ZN3zmq5msg_t9set_flagsEh(ptr noundef nonnull align 8 dereferenceable(64) %3, i8 noundef zeroext 2)
  %41 = call noundef ptr @_ZN3zmq5msg_t4dataEv(ptr noundef nonnull align 8 dereferenceable(64) %3)
  %42 = getelementptr inbounds nuw i8, ptr %41, i64 %.026
  %43 = call noundef ptr @_ZNK3zmq5msg_t5groupEv(ptr noundef nonnull align 8 dereferenceable(64) %1)
  %44 = ashr exact i64 %13, 32
  call void @llvm.memcpy.p0.p0.i64(ptr nonnull align 1 %42, ptr align 1 %43, i64 %44, i1 false)
  %45 = call noundef i32 @_ZN3zmq5msg_t5closeEv(ptr noundef nonnull align 8 dereferenceable(64) %1)
  %.not32 = icmp eq i32 %45, 0
  br i1 %.not32, label %54, label %46, !prof !98

46:                                               ; preds = %40
  %47 = tail call ptr @__errno_location() #21
  %48 = load i32, ptr %47, align 4, !tbaa !99
  %49 = call ptr @strerror(i32 noundef %48) #22
  %50 = load ptr, ptr @stderr, align 8, !tbaa !100
  %51 = call i32 (ptr, ptr, ...) @fprintf(ptr noundef %50, ptr noundef nonnull @.str, ptr noundef %49, ptr noundef nonnull @.str.1, i32 noundef 311) #23
  %52 = load ptr, ptr @stderr, align 8, !tbaa !100
  %53 = call i32 @fflush(ptr noundef %52)
  call void @_ZN3zmq9zmq_abortEPKc(ptr noundef %49)
  br label %54

54:                                               ; preds = %46, %40
  call void @llvm.memcpy.p0.p0.i64(ptr noundef nonnull align 8 dereferenceable(64) %1, ptr noundef nonnull align 8 dereferenceable(64) %3, i64 64, i1 false), !tbaa.struct !130
  call void @llvm.lifetime.end.p0(i64 64, ptr nonnull %3) #22
  br label %55

55:                                               ; preds = %7, %2, %54
  ret i32 %4
}